; Function Attrs: mustprogress uwtable
define noundef nonnull align 8 dereferenceable(8) ptr @_ZN2cv4gapi4s11nrsERNS1_8IIStreamERNS_8GMatDescE(ptr noundef nonnull align 8 dereferenceable(8) %0, ptr noundef nonnull align 8 dereferenceable(48) %1) local_unnamed_addr #3 personality ptr @__gxx_personality_v0 {
  %3 = alloca i32, align 4
  %4 = load ptr, ptr %0, align 8, !tbaa !8
  %5 = getelementptr inbounds nuw i8, ptr %4, i64 64
  %6 = load ptr, ptr %5, align 8
  %7 = tail call noundef nonnull align 8 dereferenceable(8) ptr %6(ptr noundef nonnull align 8 dereferenceable(8) %0, ptr noundef nonnull align 4 dereferenceable(4) %1)
  %8 = getelementptr inbounds nuw i8, ptr %1, i64 4
  %9 = load ptr, ptr %7, align 8, !tbaa !8
  %10 = getelementptr inbounds nuw i8, ptr %9, i64 64
  %11 = load ptr, ptr %10, align 8
  %12 = tail call noundef nonnull align 8 dereferenceable(8) ptr %11(ptr noundef nonnull align 8 dereferenceable(8) %7, ptr noundef nonnull align 4 dereferenceable(4) %8)
  %13 = getelementptr inbounds nuw i8, ptr %1, i64 8
  %14 = load ptr, ptr %12, align 8, !tbaa !8
  %15 = getelementptr inbounds nuw i8, ptr %14, i64 64
  %16 = load ptr, ptr %15, align 8
  %17 = tail call noundef nonnull align 8 dereferenceable(8) ptr %16(ptr noundef nonnull align 8 dereferenceable(8) %12, ptr noundef nonnull align 4 dereferenceable(8) %13)
  %18 = getelementptr inbounds nuw i8, ptr %1, i64 12
  %19 = load ptr, ptr %17, align 8, !tbaa !8
  %20 = getelementptr inbounds nuw i8, ptr %19, i64 64
  %21 = load ptr, ptr %20, align 8
  %22 = tail call noundef nonnull align 8 dereferenceable(8) ptr %21(ptr noundef nonnull align 8 dereferenceable(8) %17, ptr noundef nonnull align 4 dereferenceable(4) %18)
  %23 = getelementptr inbounds nuw i8, ptr %1, i64 16
  %24 = load ptr, ptr %22, align 8, !tbaa !8
  %25 = getelementptr inbounds nuw i8, ptr %24, i64 16
  %26 = load ptr, ptr %25, align 8
  %27 = tail call noundef nonnull align 8 dereferenceable(8) ptr %26(ptr noundef nonnull align 8 dereferenceable(8) %22, ptr noundef nonnull align 1 dereferenceable(1) %23)
  %28 = getelementptr inbounds nuw i8, ptr %1, i64 24
  call void @llvm.lifetime.start.p0(i64 4, ptr nonnull %3) #31
  store i32 0, ptr %3, align 4, !tbaa !38
  %29 = load ptr, ptr %27, align 8, !tbaa !8
  %30 = getelementptr inbounds nuw i8, ptr %29, i64 88
  %31 = load ptr, ptr %30, align 8
  %32 = call noundef nonnull align 8 dereferenceable(8) ptr %31(ptr noundef nonnull align 8 dereferenceable(8) %27, ptr noundef nonnull align 4 dereferenceable(4) %3)
  %33 = load i32, ptr %3, align 4, !tbaa !38
  %34 = icmp eq i32 %33, 0
  %35 = getelementptr inbounds nuw i8, ptr %1, i64 32
  %36 = load ptr, ptr %35, align 8, !tbaa !132
  br i1 %34, label %37, label %40

37:                                               ; preds = %2
  %38 = load ptr, ptr %28, align 8, !tbaa !134
  %.not.i.i.i = icmp eq ptr %36, %38
  br i1 %.not.i.i.i, label %_ZN2cv4gapi4s11nrsIiEERNS1_8IIStreamES4_RSt6vectorIT_SaIS6_EE.exit, label %39

39:                                               ; preds = %37
  store ptr %38, ptr %35, align 8, !tbaa !132
  br label %_ZN2cv4gapi4s11nrsIiEERNS1_8IIStreamES4_RSt6vectorIT_SaIS6_EE.exit

40:                                               ; preds = %2
  %41 = zext i32 %33 to i64
  %42 = load ptr, ptr %28, align 8, !tbaa !134
  %43 = ptrtoint ptr %36 to i64
  %44 = ptrtoint ptr %42 to i64
  %45 = sub i64 %43, %44
  %46 = ashr exact i64 %45, 2
  %47 = icmp ult i64 %46, %41
  br i1 %47, label %_ZNSt6vectorIiSaIiEE6resizeEm.exit.i, label %48

48:                                               ; preds = %40
  %49 = icmp ugt i64 %46, %41
  br i1 %49, label %50, label %.lr.ph.i.preheader

50:                                               ; preds = %48
  %51 = getelementptr inbounds nuw i32, ptr %42, i64 %41
  %.not.i.i9.i = icmp eq ptr %36, %51
  br i1 %.not.i.i9.i, label %.lr.ph.i.preheader, label %52

52:                                               ; preds = %50
  store ptr %51, ptr %35, align 8, !tbaa !132
  br label %.lr.ph.i.preheader

_ZNSt6vectorIiSaIiEE6resizeEm.exit.i:             ; preds = %40
  %53 = sub nuw nsw i64 %41, %46
  call void @_ZNSt6vectorIiSaIiEE17_M_default_appendEm(ptr noundef nonnull align 8 dereferenceable(24) %28, i64 noundef %53)
  %.pre.i = load i32, ptr %3, align 4, !tbaa !38
  %54 = icmp eq i32 %.pre.i, 0
  br i1 %54, label %_ZN2cv4gapi4s11nrsIiEERNS1_8IIStreamES4_RSt6vectorIT_SaIS6_EE.exit, label %.lr.ph.i.preheader

.lr.ph.i.preheader:                               ; preds = %_ZNSt6vectorIiSaIiEE6resizeEm.exit.i, %52, %50, %48
  br label %.lr.ph.i

.lr.ph.i:                                         ; preds = %.lr.ph.i.preheader, %.lr.ph.i
  %.010.i = phi i64 [ %61, %.lr.ph.i ], [ 0, %.lr.ph.i.preheader ]
  %55 = load ptr, ptr %28, align 8, !tbaa !134
  %56 = getelementptr inbounds nuw i32, ptr %55, i64 %.010.i
  %57 = load ptr, ptr %27, align 8, !tbaa !8
  %58 = getelementptr inbounds nuw i8, ptr %57, i64 64
  %59 = load ptr, ptr %58, align 8
  %60 = call noundef nonnull align 8 dereferenceable(8) ptr %59(ptr noundef nonnull align 8 dereferenceable(8) %27, ptr noundef nonnull align 4 dereferenceable(4) %56)
  %61 = add nuw nsw i64 %.010.i, 1
  %62 = load i32, ptr %3, align 4, !tbaa !38
  %63 = zext i32 %62 to i64
  %64 = icmp samesign ult i64 %61, %63
  br i1 %64, label %.lr.ph.i, label %_ZN2cv4gapi4s11nrsIiEERNS1_8IIStreamES4_RSt6vectorIT_SaIS6_EE.exit, !llvm.loop !195

_ZN2cv4gapi4s11nrsIiEERNS1_8IIStreamES4_RSt6vectorIT_SaIS6_EE.exit: ; preds = %.lr.ph.i, %37, %39, %_ZNSt6vectorIiSaIiEE6resizeEm.exit.i
  call void @llvm.lifetime.end.p0(i64 4, ptr nonnull %3) #31
  ret ptr %27
}